(lp0
(S'deps'
p1
ccopy_reg
_reconstructor
p2
(cino.utils
SpaceList
p3
c__builtin__
list
p4
(lp5
S'.build/mega2560/src/dependencies.d'
p6
aS'.build/mega2560/arduino/dependencies.d'
p7
aS'.build/mega2560/Servo/dependencies.d'
p8
aS'.build/mega2560/Adafruit-Motor-Shield-library-master/dependencies.d'
p9
atp10
Rp11
tp12
a(S'stty'
p13
S'/usr/bin/stty'
p14
tp15
a(S'version.txt'
p16
S'/usr/share/arduino/lib/version.txt'
p17
tp18
a(S'used_libs'
p19
(lp20
S'/usr/share/arduino/libraries/Servo'
p21
aS'lib/Adafruit-Motor-Shield-library-master'
p22
aS'/usr/share/arduino/hardware/arduino/cores/arduino'
p23
atp24
a(S'cc'
p25
S'/usr/lib64/ccache/avr-gcc'
p26
tp27
a(S'arduino_libraries_dir'
p28
S'/usr/share/arduino/libraries'
p29
tp30
a(S'arduino_core_dir'
p31
g23
tp32
a(S'boards.txt'
p33
S'/usr/share/arduino/hardware/arduino/boards.txt'
p34
tp35
a(S'cxxflags'
p36
g2
(g3
g4
(lp37
S'-fno-exceptions'
p38
atp39
Rp40
tp41
a(S'arduino_variants_dir'
p42
S'/usr/share/arduino/hardware/arduino/variants'
p43
tp44
a(S'avrdude'
p45
S'/usr/bin/avrdude'
p46
tp47
a(S'avrdude.conf'
p48
S'/usr/local/share/arduino/hardware/tools/avrdude.conf'
p49
tp50
a(S'names'
p51
(dp52
S'cpp'
p53
S'%s.cpp'
p54
sS'obj'
p55
S'%s.o'
p56
sS'lib'
p57
S'lib%s.a'
p58
sS'deps'
p59
S'%s.d'
p60
stp61
a(S'cflags'
p62
g2
(g3
g4
(lp63
S'-mmcu=atmega2560'
p64
aS'-ffunction-sections'
p65
aS'-fdata-sections'
p66
aS'-g'
p67
aS'-Os'
p68
aS'-w'
p69
aS'-DF_CPU=16000000L'
p70
aS'-DARDUINO=100'
p71
aS'-I/usr/share/arduino/hardware/arduino/cores/arduino'
p72
aS'-I/usr/share/arduino/hardware/arduino/variants/mega'
p73
aS'-I/usr/share/arduino/libraries/Servo'
p74
aS'-Ilib/Adafruit-Motor-Shield-library-master'
p75
aS'-I/usr/share/arduino/hardware/arduino/cores/arduino'
p76
atp77
Rp78
tp79
a(S'elfflags'
p80
g2
(g3
g4
(lp81
g68
aS'-Wl,--gc-sections'
p82
ag64
atp83
Rp84
tp85
a(S'arduino_lib_version'
p86
g2
(cino.environment
Version
p87
c__builtin__
tuple
p88
(I1
I0
tp89
tp90
Rp91
tp92
a(S'objcopy'
p93
S'/usr/bin/avr-objcopy'
p94
tp95
a(S'ar'
p96
S'/usr/bin/avr-ar'
p97
tp98
a(S'board_models'
p99
cino.environment
BoardModels
p100
((lp101
(lp102
S'uno'
p103
a(dp104
S'bootloader'
p105
(dp106
S'extended_fuses'
p107
S'0x05'
p108
sS'high_fuses'
p109
S'0xde'
p110
sS'low_fuses'
p111
S'0xff'
p112
sS'lock_bits'
p113
S'0x0F'
p114
sS'file'
p115
S'optiboot_atmega328.hex'
p116
sS'path'
p117
S'optiboot'
p118
sS'unlock_bits'
p119
S'0x3F'
p120
ssS'build'
p121
(dp122
S'core'
p123
S'arduino'
p124
sS'mcu'
p125
S'atmega328p'
p126
sS'f_cpu'
p127
S'16000000L'
p128
sS'variant'
p129
S'standard'
p130
ssS'name'
p131
S'Arduino Uno'
p132
sS'upload'
p133
(dp134
S'speed'
p135
S'115200'
p136
sS'maximum_size'
p137
S'32256'
p138
sS'protocol'
p139
S'arduino'
p140
ssaa(lp141
S'atmega328'
p142
a(dp143
S'bootloader'
p144
(dp145
S'extended_fuses'
p146
S'0x05'
p147
sS'high_fuses'
p148
S'0xDA'
p149
sS'low_fuses'
p150
S'0xFF'
p151
sS'lock_bits'
p152
S'0x0F'
p153
sS'file'
p154
S'ATmegaBOOT_168_atmega328.hex'
p155
sS'path'
p156
S'atmega'
p157
sS'unlock_bits'
p158
S'0x3F'
p159
ssS'build'
p160
(dp161
S'core'
p162
S'arduino'
p163
sS'mcu'
p164
S'atmega328p'
p165
sS'f_cpu'
p166
S'16000000L'
p167
sS'variant'
p168
S'standard'
p169
ssS'name'
p170
S'Arduino Duemilanove w/ ATmega328'
p171
sS'upload'
p172
(dp173
S'speed'
p174
S'57600'
p175
sS'maximum_size'
p176
S'30720'
p177
sS'protocol'
p178
S'arduino'
p179
ssaa(lp180
S'diecimila'
p181
a(dp182
S'bootloader'
p183
(dp184
S'extended_fuses'
p185
S'0x00'
p186
sS'high_fuses'
p187
S'0xdd'
p188
sS'low_fuses'
p189
S'0xff'
p190
sS'lock_bits'
p191
S'0x0F'
p192
sS'file'
p193
S'ATmegaBOOT_168_diecimila.hex'
p194
sS'path'
p195
S'atmega'
p196
sS'unlock_bits'
p197
S'0x3F'
p198
ssS'build'
p199
(dp200
S'core'
p201
S'arduino'
p202
sS'mcu'
p203
S'atmega168'
p204
sS'f_cpu'
p205
S'16000000L'
p206
sS'variant'
p207
S'standard'
p208
ssS'name'
p209
S'Arduino Diecimila or Duemilanove w/ ATmega168'
p210
sS'upload'
p211
(dp212
S'speed'
p213
S'19200'
p214
sS'maximum_size'
p215
S'14336'
p216
sS'protocol'
p217
S'arduino'
p218
ssaa(lp219
S'nano328'
p220
a(dp221
S'bootloader'
p222
(dp223
S'extended_fuses'
p224
S'0x05'
p225
sS'high_fuses'
p226
S'0xDA'
p227
sS'low_fuses'
p228
S'0xFF'
p229
sS'lock_bits'
p230
S'0x0F'
p231
sS'file'
p232
S'ATmegaBOOT_168_atmega328.hex'
p233
sS'path'
p234
S'atmega'
p235
sS'unlock_bits'
p236
S'0x3F'
p237
ssS'build'
p238
(dp239
S'core'
p240
S'arduino'
p241
sS'mcu'
p242
S'atmega328p'
p243
sS'f_cpu'
p244
S'16000000L'
p245
sS'variant'
p246
S'eightanaloginputs'
p247
ssS'name'
p248
S'Arduino Nano w/ ATmega328'
p249
sS'upload'
p250
(dp251
S'speed'
p252
S'57600'
p253
sS'maximum_size'
p254
S'30720'
p255
sS'protocol'
p256
S'arduino'
p257
ssaa(lp258
S'nano'
p259
a(dp260
S'bootloader'
p261
(dp262
S'extended_fuses'
p263
S'0x00'
p264
sS'high_fuses'
p265
S'0xdd'
p266
sS'low_fuses'
p267
S'0xff'
p268
sS'lock_bits'
p269
S'0x0F'
p270
sS'file'
p271
S'ATmegaBOOT_168_diecimila.hex'
p272
sS'path'
p273
S'atmega'
p274
sS'unlock_bits'
p275
S'0x3F'
p276
ssS'build'
p277
(dp278
S'core'
p279
S'arduino'
p280
sS'mcu'
p281
S'atmega168'
p282
sS'f_cpu'
p283
S'16000000L'
p284
sS'variant'
p285
S'eightanaloginputs'
p286
ssS'name'
p287
S'Arduino Nano w/ ATmega168'
p288
sS'upload'
p289
(dp290
S'speed'
p291
S'19200'
p292
sS'maximum_size'
p293
S'14336'
p294
sS'protocol'
p295
S'arduino'
p296
ssaa(lp297
S'mega2560'
p298
a(dp299
S'bootloader'
p300
(dp301
S'extended_fuses'
p302
S'0xFD'
p303
sS'high_fuses'
p304
S'0xD8'
p305
sS'low_fuses'
p306
S'0xFF'
p307
sS'lock_bits'
p308
S'0x0F'
p309
sS'file'
p310
S'stk500boot_v2_mega2560.hex'
p311
sS'path'
p312
S'stk500v2'
p313
sS'unlock_bits'
p314
S'0x3F'
p315
ssS'build'
p316
(dp317
S'core'
p318
S'arduino'
p319
sS'mcu'
p320
S'atmega2560'
p321
sS'f_cpu'
p322
S'16000000L'
p323
sS'variant'
p324
S'mega'
p325
ssS'name'
p326
S'Arduino Mega 2560 or Mega ADK'
p327
sS'upload'
p328
(dp329
S'speed'
p330
S'115200'
p331
sS'maximum_size'
p332
S'258048'
p333
sS'protocol'
p334
S'stk500v2'
p335
ssaa(lp336
S'mega'
p337
a(dp338
S'bootloader'
p339
(dp340
S'extended_fuses'
p341
S'0xF5'
p342
sS'high_fuses'
p343
S'0xDA'
p344
sS'low_fuses'
p345
S'0xFF'
p346
sS'lock_bits'
p347
S'0x0F'
p348
sS'file'
p349
S'ATmegaBOOT_168_atmega1280.hex'
p350
sS'path'
p351
S'atmega'
p352
sS'unlock_bits'
p353
S'0x3F'
p354
ssS'build'
p355
(dp356
S'core'
p357
S'arduino'
p358
sS'mcu'
p359
S'atmega1280'
p360
sS'f_cpu'
p361
S'16000000L'
p362
sS'variant'
p363
S'mega'
p364
ssS'name'
p365
S'Arduino Mega (ATmega1280)'
p366
sS'upload'
p367
(dp368
S'speed'
p369
S'57600'
p370
sS'maximum_size'
p371
S'126976'
p372
sS'protocol'
p373
S'arduino'
p374
ssaa(lp375
S'leonardo'
p376
a(dp377
S'bootloader'
p378
(dp379
S'extended_fuses'
p380
S'0xcb'
p381
sS'high_fuses'
p382
S'0xd8'
p383
sS'low_fuses'
p384
S'0xff'
p385
sS'lock_bits'
p386
S'0x2F'
p387
sS'file'
p388
S'Caterina-Leonardo.hex'
p389
sS'path'
p390
S'caterina'
p391
sS'unlock_bits'
p392
S'0x3F'
p393
ssS'build'
p394
(dp395
S'core'
p396
S'arduino'
p397
sS'f_cpu'
p398
S'16000000L'
p399
sS'vid'
p400
S'0x2341'
p401
sS'pid'
p402
S'0x8036'
p403
sS'variant'
p404
S'leonardo'
p405
sS'mcu'
p406
S'atmega32u4'
p407
ssS'name'
p408
S'Arduino Leonardo'
p409
sS'upload'
p410
(dp411
S'speed'
p412
S'57600'
p413
sS'maximum_size'
p414
S'28672'
p415
sS'protocol'
p416
S'avr109'
p417
sS'disable_flushing'
p418
S'true'
p419
ssaa(lp420
S'mini328'
p421
a(dp422
S'bootloader'
p423
(dp424
S'extended_fuses'
p425
S'0x05'
p426
sS'high_fuses'
p427
S'0xd8'
p428
sS'low_fuses'
p429
S'0xff'
p430
sS'lock_bits'
p431
S'0x0F'
p432
sS'file'
p433
S'optiboot_atmega328-Mini.hex'
p434
sS'path'
p435
S'optiboot'
p436
sS'unlock_bits'
p437
S'0x3F'
p438
ssS'build'
p439
(dp440
S'core'
p441
S'arduino'
p442
sS'mcu'
p443
S'atmega328p'
p444
sS'f_cpu'
p445
S'16000000L'
p446
sS'variant'
p447
S'eightanaloginputs'
p448
ssS'name'
p449
S'Arduino Mini w/ ATmega328'
p450
sS'upload'
p451
(dp452
S'speed'
p453
S'115200'
p454
sS'maximum_size'
p455
S'28672'
p456
sS'protocol'
p457
S'arduino'
p458
ssaa(lp459
S'mini'
p460
a(dp461
S'bootloader'
p462
(dp463
S'extended_fuses'
p464
S'0x00'
p465
sS'high_fuses'
p466
S'0xdd'
p467
sS'low_fuses'
p468
S'0xff'
p469
sS'lock_bits'
p470
S'0x0F'
p471
sS'file'
p472
S'ATmegaBOOT_168_ng.hex'
p473
sS'path'
p474
S'atmega'
p475
sS'unlock_bits'
p476
S'0x3F'
p477
ssS'build'
p478
(dp479
S'core'
p480
S'arduino'
p481
sS'mcu'
p482
S'atmega168'
p483
sS'f_cpu'
p484
S'16000000L'
p485
sS'variant'
p486
S'eightanaloginputs'
p487
ssS'name'
p488
S'Arduino Mini w/ ATmega168'
p489
sS'upload'
p490
(dp491
S'speed'
p492
S'19200'
p493
sS'maximum_size'
p494
S'14336'
p495
sS'protocol'
p496
S'arduino'
p497
ssaa(lp498
S'ethernet'
p499
a(dp500
S'bootloader'
p501
(dp502
S'extended_fuses'
p503
S'0x05'
p504
sS'high_fuses'
p505
S'0xde'
p506
sS'low_fuses'
p507
S'0xff'
p508
sS'lock_bits'
p509
S'0x0F'
p510
sS'file'
p511
S'optiboot_atmega328.hex'
p512
sS'path'
p513
S'optiboot'
p514
sS'unlock_bits'
p515
S'0x3F'
p516
ssS'build'
p517
(dp518
S'f_cpu'
p519
S'16000000L'
p520
sS'mcu'
p521
S'atmega328p'
p522
sS'variant'
p523
S'standard'
p524
sS'core'
p525
S'arduino'
p526
ssS'name'
p527
S'Arduino Ethernet'
p528
sS'upload'
p529
(dp530
S'speed'
p531
S'115200'
p532
sS'maximum_size'
p533
S'32256'
p534
sS'protocol'
p535
S'arduino'
p536
ssaa(lp537
S'fio'
p538
a(dp539
S'bootloader'
p540
(dp541
S'extended_fuses'
p542
S'0x05'
p543
sS'high_fuses'
p544
S'0xDA'
p545
sS'low_fuses'
p546
S'0xFF'
p547
sS'lock_bits'
p548
S'0x0F'
p549
sS'file'
p550
S'ATmegaBOOT_168_atmega328_pro_8MHz.hex'
p551
sS'path'
p552
S'arduino:atmega'
p553
sS'unlock_bits'
p554
S'0x3F'
p555
ssS'build'
p556
(dp557
S'core'
p558
S'arduino'
p559
sS'mcu'
p560
S'atmega328p'
p561
sS'f_cpu'
p562
S'8000000L'
p563
sS'variant'
p564
S'eightanaloginputs'
p565
ssS'name'
p566
S'Arduino Fio'
p567
sS'upload'
p568
(dp569
S'speed'
p570
S'57600'
p571
sS'maximum_size'
p572
S'30720'
p573
sS'protocol'
p574
S'arduino'
p575
ssaa(lp576
S'bt328'
p577
a(dp578
S'bootloader'
p579
(dp580
S'extended_fuses'
p581
S'0x05'
p582
sS'high_fuses'
p583
S'0xd8'
p584
sS'low_fuses'
p585
S'0xff'
p586
sS'lock_bits'
p587
S'0x0F'
p588
sS'file'
p589
S'ATmegaBOOT_168_atmega328_bt.hex'
p590
sS'path'
p591
S'bt'
p592
sS'unlock_bits'
p593
S'0x3F'
p594
ssS'build'
p595
(dp596
S'core'
p597
S'arduino'
p598
sS'mcu'
p599
S'atmega328p'
p600
sS'f_cpu'
p601
S'16000000L'
p602
sS'variant'
p603
S'eightanaloginputs'
p604
ssS'name'
p605
S'Arduino BT w/ ATmega328'
p606
sS'upload'
p607
(dp608
S'speed'
p609
S'19200'
p610
sS'maximum_size'
p611
S'28672'
p612
sS'protocol'
p613
S'arduino'
p614
sS'disable_flushing'
p615
S'true'
p616
ssaa(lp617
S'bt'
p618
a(dp619
S'bootloader'
p620
(dp621
S'extended_fuses'
p622
S'0x00'
p623
sS'high_fuses'
p624
S'0xdd'
p625
sS'low_fuses'
p626
S'0xff'
p627
sS'lock_bits'
p628
S'0x0F'
p629
sS'file'
p630
S'ATmegaBOOT_168.hex'
p631
sS'path'
p632
S'bt'
p633
sS'unlock_bits'
p634
S'0x3F'
p635
ssS'build'
p636
(dp637
S'core'
p638
S'arduino'
p639
sS'mcu'
p640
S'atmega168'
p641
sS'f_cpu'
p642
S'16000000L'
p643
sS'variant'
p644
S'eightanaloginputs'
p645
ssS'name'
p646
S'Arduino BT w/ ATmega168'
p647
sS'upload'
p648
(dp649
S'speed'
p650
S'19200'
p651
sS'maximum_size'
p652
S'14336'
p653
sS'protocol'
p654
S'arduino'
p655
sS'disable_flushing'
p656
S'true'
p657
ssaa(lp658
S'lilypad328'
p659
a(dp660
S'bootloader'
p661
(dp662
S'extended_fuses'
p663
S'0x05'
p664
sS'high_fuses'
p665
S'0xDA'
p666
sS'low_fuses'
p667
S'0xFF'
p668
sS'lock_bits'
p669
S'0x0F'
p670
sS'file'
p671
S'ATmegaBOOT_168_atmega328_pro_8MHz.hex'
p672
sS'path'
p673
S'atmega'
p674
sS'unlock_bits'
p675
S'0x3F'
p676
ssS'build'
p677
(dp678
S'core'
p679
S'arduino'
p680
sS'mcu'
p681
S'atmega328p'
p682
sS'f_cpu'
p683
S'8000000L'
p684
sS'variant'
p685
S'standard'
p686
ssS'name'
p687
S'LilyPad Arduino w/ ATmega328'
p688
sS'upload'
p689
(dp690
S'speed'
p691
S'57600'
p692
sS'maximum_size'
p693
S'30720'
p694
sS'protocol'
p695
S'arduino'
p696
ssaa(lp697
S'lilypad'
p698
a(dp699
S'bootloader'
p700
(dp701
S'extended_fuses'
p702
S'0x00'
p703
sS'high_fuses'
p704
S'0xdd'
p705
sS'low_fuses'
p706
S'0xe2'
p707
sS'lock_bits'
p708
S'0x0F'
p709
sS'file'
p710
S'LilyPadBOOT_168.hex'
p711
sS'path'
p712
S'lilypad'
p713
sS'unlock_bits'
p714
S'0x3F'
p715
ssS'build'
p716
(dp717
S'core'
p718
S'arduino'
p719
sS'mcu'
p720
S'atmega168'
p721
sS'f_cpu'
p722
S'8000000L'
p723
sS'variant'
p724
S'standard'
p725
ssS'name'
p726
S'LilyPad Arduino w/ ATmega168'
p727
sS'upload'
p728
(dp729
S'speed'
p730
S'19200'
p731
sS'maximum_size'
p732
S'14336'
p733
sS'protocol'
p734
S'arduino'
p735
ssaa(lp736
S'pro5v328'
p737
a(dp738
S'bootloader'
p739
(dp740
S'extended_fuses'
p741
S'0x05'
p742
sS'high_fuses'
p743
S'0xDA'
p744
sS'low_fuses'
p745
S'0xFF'
p746
sS'lock_bits'
p747
S'0x0F'
p748
sS'file'
p749
S'ATmegaBOOT_168_atmega328.hex'
p750
sS'path'
p751
S'atmega'
p752
sS'unlock_bits'
p753
S'0x3F'
p754
ssS'build'
p755
(dp756
S'core'
p757
S'arduino'
p758
sS'mcu'
p759
S'atmega328p'
p760
sS'f_cpu'
p761
S'16000000L'
p762
sS'variant'
p763
S'standard'
p764
ssS'name'
p765
S'Arduino Pro or Pro Mini (5V, 16 MHz) w/ ATmega328'
p766
sS'upload'
p767
(dp768
S'speed'
p769
S'57600'
p770
sS'maximum_size'
p771
S'30720'
p772
sS'protocol'
p773
S'arduino'
p774
ssaa(lp775
S'pro5v'
p776
a(dp777
S'bootloader'
p778
(dp779
S'extended_fuses'
p780
S'0x00'
p781
sS'high_fuses'
p782
S'0xdd'
p783
sS'low_fuses'
p784
S'0xff'
p785
sS'lock_bits'
p786
S'0x0F'
p787
sS'file'
p788
S'ATmegaBOOT_168_diecimila.hex'
p789
sS'path'
p790
S'atmega'
p791
sS'unlock_bits'
p792
S'0x3F'
p793
ssS'build'
p794
(dp795
S'core'
p796
S'arduino'
p797
sS'mcu'
p798
S'atmega168'
p799
sS'f_cpu'
p800
S'16000000L'
p801
sS'variant'
p802
S'standard'
p803
ssS'name'
p804
S'Arduino Pro or Pro Mini (5V, 16 MHz) w/ ATmega168'
p805
sS'upload'
p806
(dp807
S'speed'
p808
S'19200'
p809
sS'maximum_size'
p810
S'14336'
p811
sS'protocol'
p812
S'arduino'
p813
ssaa(lp814
S'pro328'
p815
a(dp816
S'bootloader'
p817
(dp818
S'extended_fuses'
p819
S'0x05'
p820
sS'high_fuses'
p821
S'0xDA'
p822
sS'low_fuses'
p823
S'0xFF'
p824
sS'lock_bits'
p825
S'0x0F'
p826
sS'file'
p827
S'ATmegaBOOT_168_atmega328_pro_8MHz.hex'
p828
sS'path'
p829
S'atmega'
p830
sS'unlock_bits'
p831
S'0x3F'
p832
ssS'build'
p833
(dp834
S'core'
p835
S'arduino'
p836
sS'mcu'
p837
S'atmega328p'
p838
sS'f_cpu'
p839
S'8000000L'
p840
sS'variant'
p841
S'standard'
p842
ssS'name'
p843
S'Arduino Pro or Pro Mini (3.3V, 8 MHz) w/ ATmega328'
p844
sS'upload'
p845
(dp846
S'speed'
p847
S'57600'
p848
sS'maximum_size'
p849
S'30720'
p850
sS'protocol'
p851
S'arduino'
p852
ssaa(lp853
S'pro'
p854
a(dp855
S'bootloader'
p856
(dp857
S'extended_fuses'
p858
S'0x00'
p859
sS'high_fuses'
p860
S'0xdd'
p861
sS'low_fuses'
p862
S'0xc6'
p863
sS'lock_bits'
p864
S'0x0F'
p865
sS'file'
p866
S'ATmegaBOOT_168_pro_8MHz.hex'
p867
sS'path'
p868
S'atmega'
p869
sS'unlock_bits'
p870
S'0x3F'
p871
ssS'build'
p872
(dp873
S'core'
p874
S'arduino'
p875
sS'mcu'
p876
S'atmega168'
p877
sS'f_cpu'
p878
S'8000000L'
p879
sS'variant'
p880
S'standard'
p881
ssS'name'
p882
S'Arduino Pro or Pro Mini (3.3V, 8 MHz) w/ ATmega168'
p883
sS'upload'
p884
(dp885
S'speed'
p886
S'19200'
p887
sS'maximum_size'
p888
S'14336'
p889
sS'protocol'
p890
S'arduino'
p891
ssaa(lp892
S'atmega168'
p893
a(dp894
S'bootloader'
p895
(dp896
S'extended_fuses'
p897
S'0x00'
p898
sS'high_fuses'
p899
S'0xdd'
p900
sS'low_fuses'
p901
S'0xff'
p902
sS'lock_bits'
p903
S'0x0F'
p904
sS'file'
p905
S'ATmegaBOOT_168_ng.hex'
p906
sS'path'
p907
S'atmega'
p908
sS'unlock_bits'
p909
S'0x3F'
p910
ssS'build'
p911
(dp912
S'core'
p913
S'arduino'
p914
sS'mcu'
p915
S'atmega168'
p916
sS'f_cpu'
p917
S'16000000L'
p918
sS'variant'
p919
S'standard'
p920
ssS'name'
p921
S'Arduino NG or older w/ ATmega168'
p922
sS'upload'
p923
(dp924
S'speed'
p925
S'19200'
p926
sS'maximum_size'
p927
S'14336'
p928
sS'protocol'
p929
S'arduino'
p930
ssaa(lp931
S'atmega8'
p932
a(dp933
S'bootloader'
p934
(dp935
S'high_fuses'
p936
S'0xca'
p937
sS'low_fuses'
p938
S'0xdf'
p939
sS'lock_bits'
p940
S'0x0F'
p941
sS'file'
p942
S'ATmegaBOOT.hex'
p943
sS'path'
p944
S'atmega8'
p945
sS'unlock_bits'
p946
S'0x3F'
p947
ssS'build'
p948
(dp949
S'core'
p950
S'arduino'
p951
sS'mcu'
p952
S'atmega8'
p953
sS'f_cpu'
p954
S'16000000L'
p955
sS'variant'
p956
S'standard'
p957
ssS'name'
p958
S'Arduino NG or older w/ ATmega8'
p959
sS'upload'
p960
(dp961
S'speed'
p962
S'19200'
p963
sS'maximum_size'
p964
S'7168'
p965
sS'protocol'
p966
S'arduino'
p967
ssaatp968
Rp969
(dp970
S'default'
p971
S'uno'
p972
sbtp973
a(S'cxx'
p974
S'/usr/lib64/ccache/avr-g++'
p975
tp976
a(S'build_dir'
p977
S'.build/mega2560'
p978
tp979
a.